target datalayout = "e-m:e-p270:32:32-p271:32:32-p272:64:64-i64:64-i128:128-f80:128-n8:16:32:64-S128"
target triple = "x86_64-pc-linux-gnu"

%struct.draw_methods = type { ptr, ptr, ptr, ptr, ptr, ptr }
%struct.lstopo_output = type { ptr, i32, i32, i32, ptr, i32, i32, i32, i32, i32, i32, i32, i32, ptr, ptr, i32, i32, i64, i64, i64, i32, [3 x [128 x i8]], i32, i32, ptr, i32, i32, i32, i32, i32, i32, %struct.hwloc_calc_level, i32, i32, i32, i64, [256 x i8], i32, i32, i32, i32, i32, float, [20 x i32], i32, i32, i32, [20 x i32], i32, [20 x i32], i32, [20 x i32], i32, i32, i32, i32, ptr, ptr, i32, [20 x i32], [20 x i32], [20 x i32], ptr, ptr, i64, ptr, i32, i32, i32 }
%struct.hwloc_calc_level = type { i32, i32, %union.hwloc_obj_attr_u, [32 x i8], i32, i32, i32, i32 }
%union.hwloc_obj_attr_u = type { %struct.hwloc_numanode_attr_s, [24 x i8] }
%struct.hwloc_numanode_attr_s = type { i64, i32, ptr }

@stderr = external global ptr, align 8
@.str = private unnamed_addr constant [36 x i8] c"Failed to open %s for writing (%s)\0A\00", align 1
@fig_draw_methods = internal global %struct.draw_methods { ptr @fig_declare_color, ptr null, ptr @fig_box, ptr @fig_line, ptr @fig_text, ptr @fig_textsize }, align 8
@.str.1 = private unnamed_addr constant [38 x i8] c"#FIG 3.2  Produced by hwloc's lstopo\0A\00", align 1
@.str.2 = private unnamed_addr constant [11 x i8] c"Landscape\0A\00", align 1
@.str.3 = private unnamed_addr constant [8 x i8] c"Center\0A\00", align 1
@.str.4 = private unnamed_addr constant [8 x i8] c"Inches\0A\00", align 1
@.str.5 = private unnamed_addr constant [8 x i8] c"letter\0A\00", align 1
@.str.6 = private unnamed_addr constant [8 x i8] c"100.00\0A\00", align 1
@.str.7 = private unnamed_addr constant [8 x i8] c"Single\0A\00", align 1
@.str.8 = private unnamed_addr constant [4 x i8] c"-2\0A\00", align 1
@.str.9 = private unnamed_addr constant [8 x i8] c"1200 2\0A\00", align 1
@stdout = external global ptr, align 8

; Function Attrs: nounwind uwtable
define hidden i32 @output_fig(ptr noundef %0, ptr noundef %1) #0 {
  %3 = alloca i32, align 4
  %4 = alloca ptr, align 8
  %5 = alloca ptr, align 8
  %6 = alloca ptr, align 8
  %7 = alloca i32, align 4
  store ptr %0, ptr %4, align 8, !tbaa !4
  store ptr %1, ptr %5, align 8, !tbaa !9
  call void @llvm.lifetime.start.p0(i64 8, ptr %6) #7
  %8 = load ptr, ptr %5, align 8, !tbaa !9
  %9 = load ptr, ptr %4, align 8, !tbaa !4
  %10 = getelementptr inbounds nuw %struct.lstopo_output, ptr %9, i32 0, i32 5
  %11 = load i32, ptr %10, align 8, !tbaa !11
  %12 = call noalias ptr @open_output(ptr noundef %8, i32 noundef %11)
  store ptr %12, ptr %6, align 8, !tbaa !23
  %13 = load ptr, ptr %6, align 8, !tbaa !23
  %14 = icmp ne ptr %13, null
  br i1 %14, label %22, label %15

15:                                               ; preds = %2
  %16 = load ptr, ptr @stderr, align 8, !tbaa !23
  %17 = load ptr, ptr %5, align 8, !tbaa !9
  %18 = call ptr @__errno_location() #8
  %19 = load i32, ptr %18, align 4, !tbaa !24
  %20 = call ptr @strerror(i32 noundef %19) #7
  %21 = call i32 (ptr, ptr, ...) @fprintf(ptr noundef %16, ptr noundef @.str, ptr noundef %17, ptr noundef %20) #7
  store i32 -1, ptr %3, align 4
  store i32 1, ptr %7, align 4
  br label %66

22:                                               ; preds = %2
  %23 = load ptr, ptr %6, align 8, !tbaa !23
  %24 = load ptr, ptr %4, align 8, !tbaa !4
  %25 = getelementptr inbounds nuw %struct.lstopo_output, ptr %24, i32 0, i32 4
  store ptr %23, ptr %25, align 8, !tbaa !25
  %26 = load ptr, ptr %4, align 8, !tbaa !4
  %27 = getelementptr inbounds nuw %struct.lstopo_output, ptr %26, i32 0, i32 65
  store ptr @fig_draw_methods, ptr %27, align 8, !tbaa !26
  %28 = load ptr, ptr %4, align 8, !tbaa !4
  %29 = getelementptr inbounds nuw %struct.lstopo_output, ptr %28, i32 0, i32 64
  %30 = load i64, ptr %29, align 8, !tbaa !27
  %31 = or i64 %30, 2
  store i64 %31, ptr %29, align 8, !tbaa !27
  %32 = load ptr, ptr %4, align 8, !tbaa !4
  %33 = getelementptr inbounds nuw %struct.lstopo_output, ptr %32, i32 0, i32 66
  store i32 0, ptr %33, align 8, !tbaa !28
  %34 = load ptr, ptr %4, align 8, !tbaa !4
  call void @output_draw(ptr noundef %34)
  %35 = load ptr, ptr %4, align 8, !tbaa !4
  %36 = getelementptr inbounds nuw %struct.lstopo_output, ptr %35, i32 0, i32 66
  store i32 1, ptr %36, align 8, !tbaa !28
  %37 = load ptr, ptr %6, align 8, !tbaa !23
  %38 = call i32 (ptr, ptr, ...) @fprintf(ptr noundef %37, ptr noundef @.str.1) #7
  %39 = load ptr, ptr %6, align 8, !tbaa !23
  %40 = call i32 (ptr, ptr, ...) @fprintf(ptr noundef %39, ptr noundef @.str.2) #7
  %41 = load ptr, ptr %6, align 8, !tbaa !23
  %42 = call i32 (ptr, ptr, ...) @fprintf(ptr noundef %41, ptr noundef @.str.3) #7
  %43 = load ptr, ptr %6, align 8, !tbaa !23
  %44 = call i32 (ptr, ptr, ...) @fprintf(ptr noundef %43, ptr noundef @.str.4) #7
  %45 = load ptr, ptr %6, align 8, !tbaa !23
  %46 = call i32 (ptr, ptr, ...) @fprintf(ptr noundef %45, ptr noundef @.str.5) #7
  %47 = load ptr, ptr %6, align 8, !tbaa !23
  %48 = call i32 (ptr, ptr, ...) @fprintf(ptr noundef %47, ptr noundef @.str.6) #7
  %49 = load ptr, ptr %6, align 8, !tbaa !23
  %50 = call i32 (ptr, ptr, ...) @fprintf(ptr noundef %49, ptr noundef @.str.7) #7
  %51 = load ptr, ptr %6, align 8, !tbaa !23
  %52 = call i32 (ptr, ptr, ...) @fprintf(ptr noundef %51, ptr noundef @.str.8) #7
  %53 = load ptr, ptr %6, align 8, !tbaa !23
  %54 = call i32 (ptr, ptr, ...) @fprintf(ptr noundef %53, ptr noundef @.str.9) #7
  %55 = load ptr, ptr %4, align 8, !tbaa !4
  call void @declare_colors(ptr noundef %55)
  %56 = load ptr, ptr %4, align 8, !tbaa !4
  call void @lstopo_prepare_custom_styles(ptr noundef %56)
  %57 = load ptr, ptr %4, align 8, !tbaa !4
  call void @output_draw(ptr noundef %57)
  %58 = load ptr, ptr %6, align 8, !tbaa !23
  %59 = load ptr, ptr @stdout, align 8, !tbaa !23
  %60 = icmp ne ptr %58, %59
  br i1 %60, label %61, label %64

61:                                               ; preds = %22
  %62 = load ptr, ptr %6, align 8, !tbaa !23
  %63 = call i32 @fclose(ptr noundef %62)
  br label %64

64:                                               ; preds = %61, %22
  %65 = load ptr, ptr %4, align 8, !tbaa !4
  call void @destroy_colors(ptr noundef %65)
  store i32 0, ptr %3, align 4
  store i32 1, ptr %7, align 4
  br label %66

66:                                               ; preds = %64, %15
  call void @llvm.lifetime.end.p0(i64 8, ptr %6) #7
  %67 = load i32, ptr %3, align 4
  ret i32 %67
}